target datalayout = "e-m:e-p270:32:32-p271:32:32-p272:64:64-i64:64-i128:128-f80:128-n8:16:32:64-S128"
target triple = "x86_64-pc-linux-gnu"

@hf_tsp_carrier = internal global i32 0, align 4
@hf_predef_cfg_id = internal global i32 0, align 4

; Function Attrs: null_pointer_is_valid sspstrong uwtable
define internal signext i16 @dissect_tsp_container(ptr noundef %0, i16 noundef signext %1, ptr noundef %2) #0 {
  %4 = alloca i16, align 2
  %5 = alloca ptr, align 8
  %6 = alloca i16, align 2
  %7 = alloca ptr, align 8
  %8 = alloca i8, align 1
  %9 = alloca i32, align 4
  store ptr %0, ptr %5, align 8
  store i16 %1, ptr %6, align 2
  store ptr %2, ptr %7, align 8
  call void @llvm.lifetime.start.p0(i64 1, ptr %8) #5
  store i8 0, ptr %8, align 1
  %10 = load ptr, ptr %5, align 8
  %11 = load i16, ptr %6, align 2
  %12 = sext i16 %11 to i32
  %13 = call zeroext i8 @tvb_get_uint8(ptr noundef %10, i32 noundef %12)
  %14 = zext i8 %13 to i32
  %15 = icmp eq i32 %14, 1
  br i1 %15, label %16, label %28

16:                                               ; preds = %3
  %17 = load ptr, ptr %7, align 8
  %18 = load i32, ptr @hf_predef_cfg_id, align 4
  %19 = load ptr, ptr %5, align 8
  %20 = load i16, ptr %6, align 2
  %21 = sext i16 %20 to i32
  %22 = add i32 %21, 1
  %23 = call ptr @proto_tree_add_item(ptr noundef %17, i32 noundef %18, ptr noundef %19, i32 noundef %22, i32 noundef 1, i32 noundef 0)
  %24 = load i16, ptr %6, align 2
  %25 = sext i16 %24 to i32
  %26 = add i32 %25, 2
  %27 = trunc i32 %26 to i16
  store i16 %27, ptr %4, align 2
  store i32 1, ptr %9, align 4
  br label %62

28:                                               ; preds = %3
  %29 = load ptr, ptr %5, align 8
  %30 = load i16, ptr %6, align 2
  %31 = sext i16 %30 to i32
  %32 = call zeroext i8 @tvb_get_uint8(ptr noundef %29, i32 noundef %31)
  %33 = zext i8 %32 to i32
  %34 = icmp eq i32 %33, 2
  br i1 %34, label %35, label %57

35:                                               ; preds = %28
  %36 = load ptr, ptr %5, align 8
  %37 = load i16, ptr %6, align 2
  %38 = sext i16 %37 to i32
  %39 = add i32 %38, 1
  %40 = call zeroext i8 @tvb_get_uint8(ptr noundef %36, i32 noundef %39)
  store i8 %40, ptr %8, align 1
  %41 = load ptr, ptr %7, align 8
  %42 = load i32, ptr @hf_tsp_carrier, align 4
  %43 = load ptr, ptr %5, align 8
  %44 = load i16, ptr %6, align 2
  %45 = sext i16 %44 to i32
  %46 = add i32 %45, 2
  %47 = load i8, ptr %8, align 1
  %48 = zext i8 %47 to i32
  %49 = call ptr @proto_tree_add_item(ptr noundef %41, i32 noundef %42, ptr noundef %43, i32 noundef %46, i32 noundef %48, i32 noundef 0)
  %50 = load i16, ptr %6, align 2
  %51 = sext i16 %50 to i32
  %52 = load i8, ptr %8, align 1
  %53 = zext i8 %52 to i32
  %54 = add i32 %51, %53
  %55 = add i32 %54, 2
  %56 = trunc i32 %55 to i16
  store i16 %56, ptr %4, align 2
  store i32 1, ptr %9, align 4
  br label %62

57:                                               ; preds = %28
  %58 = load i16, ptr %6, align 2
  %59 = sext i16 %58 to i32
  %60 = add i32 %59, 1
  %61 = trunc i32 %60 to i16
  store i16 %61, ptr %4, align 2
  store i32 1, ptr %9, align 4
  br label %62

62:                                               ; preds = %57, %35, %16
  call void @llvm.lifetime.end.p0(i64 1, ptr %8) #5
  %63 = load i16, ptr %4, align 2
  ret i16 %63
}