; Function Attrs: null_pointer_is_valid sspstrong uwtable
define internal fastcc signext i16 @dissect_tsp_container(ptr noundef %0, i16 noundef signext %1, ptr noundef %2) unnamed_addr #0 {
  %4 = sext i16 %1 to i32
  %5 = tail call zeroext i8 @tvb_get_uint8(ptr noundef %0, i32 noundef %4)
  %6 = icmp eq i8 %5, 1
  br i1 %6, label %7, label %12

7:                                                ; preds = %3
  %8 = load i32, ptr @hf_predef_cfg_id, align 4
  %9 = add nsw i32 %4, 1
  %10 = tail call ptr @proto_tree_add_item(ptr noundef %2, i32 noundef %8, ptr noundef %0, i32 noundef %9, i32 noundef 1, i32 noundef 0)
  %11 = add i16 %1, 2
  br label %27

12:                                               ; preds = %3
  %13 = tail call zeroext i8 @tvb_get_uint8(ptr noundef %0, i32 noundef %4)
  %14 = icmp eq i8 %13, 2
  br i1 %14, label %15, label %25

15:                                               ; preds = %12
  %16 = add nsw i32 %4, 1
  %17 = tail call zeroext i8 @tvb_get_uint8(ptr noundef %0, i32 noundef %16)
  %18 = load i32, ptr @hf_tsp_carrier, align 4
  %19 = add nsw i32 %4, 2
  %20 = zext i8 %17 to i32
  %21 = tail call ptr @proto_tree_add_item(ptr noundef %2, i32 noundef %18, ptr noundef %0, i32 noundef %19, i32 noundef %20, i32 noundef 0)
  %22 = zext i8 %17 to i16
  %23 = add i16 %1, 2
  %24 = add i16 %23, %22
  br label %27

25:                                               ; preds = %12
  %26 = add i16 %1, 1
  br label %27

27:                                               ; preds = %25, %15, %7
  %.0 = phi i16 [ %11, %7 ], [ %24, %15 ], [ %26, %25 ]
  ret i16 %.0
}